target datalayout = "e-m:e-p270:32:32-p271:32:32-p272:64:64-i64:64-i128:128-f80:128-n8:16:32:64-S128"
target triple = "x86_64-pc-linux-gnu"

%"class.pxrInternal_v0_24__pxrReserved__::Sdf_ParserValueContext" = type { i32, %"class.std::vector", i32, %"struct.pxrInternal_v0_24__pxrReserved__::SdfTupleDimensions", %"class.std::vector.0", %"class.std::vector", i32, %"class.std::__cxx11::basic_string", i8, %"class.std::__cxx11::basic_string", %"class.std::function", i8, %"struct.pxrInternal_v0_24__pxrReserved__::SdfTupleDimensions", %"class.std::function.8", i8, i8, %"class.std::__cxx11::basic_string" }
%"class.std::vector.0" = type { %"struct.std::_Vector_base.1" }
%"struct.std::_Vector_base.1" = type { %"struct.std::_Vector_base<pxrInternal_v0_24__pxrReserved__::Sdf_ParserHelpers::Value, std::allocator<pxrInternal_v0_24__pxrReserved__::Sdf_ParserHelpers::Value>>::_Vector_impl" }
%"struct.std::_Vector_base<pxrInternal_v0_24__pxrReserved__::Sdf_ParserHelpers::Value, std::allocator<pxrInternal_v0_24__pxrReserved__::Sdf_ParserHelpers::Value>>::_Vector_impl" = type { %"struct.std::_Vector_base<pxrInternal_v0_24__pxrReserved__::Sdf_ParserHelpers::Value, std::allocator<pxrInternal_v0_24__pxrReserved__::Sdf_ParserHelpers::Value>>::_Vector_impl_data" }
%"struct.std::_Vector_base<pxrInternal_v0_24__pxrReserved__::Sdf_ParserHelpers::Value, std::allocator<pxrInternal_v0_24__pxrReserved__::Sdf_ParserHelpers::Value>>::_Vector_impl_data" = type { ptr, ptr, ptr }
%"class.std::vector" = type { %"struct.std::_Vector_base" }
%"struct.std::_Vector_base" = type { %"struct.std::_Vector_base<unsigned int, std::allocator<unsigned int>>::_Vector_impl" }
%"struct.std::_Vector_base<unsigned int, std::allocator<unsigned int>>::_Vector_impl" = type { %"struct.std::_Vector_base<unsigned int, std::allocator<unsigned int>>::_Vector_impl_data" }
%"struct.std::_Vector_base<unsigned int, std::allocator<unsigned int>>::_Vector_impl_data" = type { ptr, ptr, ptr }
%"class.std::function" = type { %"class.std::_Function_base", ptr }
%"class.std::_Function_base" = type { %"union.std::_Any_data", ptr }
%"union.std::_Any_data" = type { %"union.std::_Nocopy_types" }
%"union.std::_Nocopy_types" = type { { i64, i64 } }
%"struct.pxrInternal_v0_24__pxrReserved__::SdfTupleDimensions" = type { [2 x i64], i64 }
%"class.std::function.8" = type { %"class.std::_Function_base", ptr }
%"class.std::__cxx11::basic_string" = type { %"struct.std::__cxx11::basic_string<char>::_Alloc_hider", i64, %union.anon }
%"struct.std::__cxx11::basic_string<char>::_Alloc_hider" = type { ptr }
%union.anon = type { i64, [8 x i8] }

@.str.6 = private unnamed_addr constant [41 x i8] c"Mismatched ( ) for attribute of type %s.\00", align 1
@.str.7 = private unnamed_addr constant [49 x i8] c"Tuple dimensions error for attribute of type %s.\00", align 1

; Function Attrs: mustprogress nounwind uwtable
define linkonce_odr noundef zeroext i1 @_ZNKSt14_Function_base8_M_emptyEv(ptr noundef nonnull align 8 dereferenceable(24) %0) #1 comdat align 2 {
  %2 = alloca ptr, align 8
  store ptr %0, ptr %2, align 8
  %3 = load ptr, ptr %2, align 8
  %4 = getelementptr inbounds nuw %"class.std::_Function_base", ptr %3, i32 0, i32 1
  %5 = load ptr, ptr %4, align 8
  %6 = icmp ne ptr %5, null
  %7 = xor i1 %6, true
  ret i1 %7
}

; Function Attrs: mustprogress nounwind uwtable
define linkonce_odr noundef nonnull align 4 dereferenceable(4) ptr @_ZNSt6vectorIjSaIjEEixEm(ptr noundef nonnull align 8 dereferenceable(24) %0, i64 noundef %1) #1 comdat align 2 {
  %3 = alloca ptr, align 8
  %4 = alloca i64, align 8
  store ptr %0, ptr %3, align 8
  store i64 %1, ptr %4, align 8
  %5 = load ptr, ptr %3, align 8
  %6 = getelementptr inbounds nuw %"struct.std::_Vector_base", ptr %5, i32 0, i32 0
  %7 = getelementptr inbounds nuw %"struct.std::_Vector_base<unsigned int, std::allocator<unsigned int>>::_Vector_impl_data", ptr %6, i32 0, i32 0
  %8 = load ptr, ptr %7, align 8
  %9 = load i64, ptr %4, align 8
  %10 = getelementptr inbounds i32, ptr %8, i64 %9
  ret ptr %10
}

; Function Attrs: mustprogress uwtable
define linkonce_odr void @_ZNKSt8functionIFvRKNSt7__cxx1112basic_stringIcSt11char_traitsIcESaIcEEEEEclES7_(ptr noundef nonnull align 8 dereferenceable(32) %0, ptr noundef nonnull align 8 dereferenceable(32) %1) #0 comdat align 2 {
  %3 = alloca ptr, align 8
  %4 = alloca ptr, align 8
  store ptr %0, ptr %3, align 8
  store ptr %1, ptr %4, align 8
  %5 = load ptr, ptr %3, align 8
  %6 = call noundef zeroext i1 @_ZNKSt14_Function_base8_M_emptyEv(ptr noundef nonnull align 8 dereferenceable(24) %5)
  br i1 %6, label %7, label %8

7:                                                ; preds = %2
  call void @_ZSt25__throw_bad_function_callv() #12
  unreachable

8:                                                ; preds = %2
  %9 = getelementptr inbounds nuw %"class.std::function.8", ptr %5, i32 0, i32 1
  %10 = load ptr, ptr %9, align 8
  %11 = getelementptr inbounds nuw %"class.std::_Function_base", ptr %5, i32 0, i32 0
  %12 = load ptr, ptr %4, align 8
  call void %10(ptr noundef nonnull align 8 dereferenceable(16) %11, ptr noundef nonnull align 8 dereferenceable(32) %12)
  ret void
}

; Function Attrs: mustprogress uwtable
define void @_ZN32pxrInternal_v0_24__pxrReserved__22Sdf_ParserValueContext8EndTupleEv(ptr noundef nonnull align 8 dereferenceable(328) %0) #0 align 2 personality ptr @__gxx_personality_v0 {
  %2 = alloca ptr, align 8
  %3 = alloca %"class.std::__cxx11::basic_string", align 8
  %4 = alloca ptr, align 8
  %5 = alloca i32, align 4
  %6 = alloca %"class.std::__cxx11::basic_string", align 8
  store ptr %0, ptr %2, align 8
  %7 = load ptr, ptr %2, align 8
  %8 = getelementptr inbounds nuw %"class.pxrInternal_v0_24__pxrReserved__::Sdf_ParserValueContext", ptr %7, i32 0, i32 15
  %9 = load i8, ptr %8, align 1
  %10 = trunc i8 %9 to i1
  br i1 %10, label %11, label %15

11:                                               ; preds = %1
  %12 = getelementptr inbounds nuw %"class.pxrInternal_v0_24__pxrReserved__::Sdf_ParserValueContext", ptr %7, i32 0, i32 16
  %13 = call noundef nonnull align 8 dereferenceable(32) ptr @_ZNSt7__cxx1112basic_stringIcSt11char_traitsIcESaIcEEpLEc(ptr noundef nonnull align 8 dereferenceable(32) %12, i8 noundef signext 41)
  %14 = getelementptr inbounds nuw %"class.pxrInternal_v0_24__pxrReserved__::Sdf_ParserValueContext", ptr %7, i32 0, i32 14
  store i8 1, ptr %14, align 8
  br label %15

15:                                               ; preds = %11, %1
  %16 = getelementptr inbounds nuw %"class.pxrInternal_v0_24__pxrReserved__::Sdf_ParserValueContext", ptr %7, i32 0, i32 2
  %17 = load i32, ptr %16, align 8
  %18 = icmp eq i32 %17, 0
  br i1 %18, label %19, label %28

19:                                               ; preds = %15
  %20 = getelementptr inbounds nuw %"class.pxrInternal_v0_24__pxrReserved__::Sdf_ParserValueContext", ptr %7, i32 0, i32 13
  %21 = getelementptr inbounds nuw %"class.pxrInternal_v0_24__pxrReserved__::Sdf_ParserValueContext", ptr %7, i32 0, i32 7
  %22 = call noundef ptr @_ZNKSt7__cxx1112basic_stringIcSt11char_traitsIcESaIcEE5c_strEv(ptr noundef nonnull align 8 dereferenceable(32) %21) #10
  call void (ptr, ptr, ...) @_ZN32pxrInternal_v0_24__pxrReserved__14TfStringPrintfB5cxx11EPKcz(ptr dead_on_unwind writable sret(%"class.std::__cxx11::basic_string") align 8 %3, ptr noundef @.str.6, ptr noundef %22)
  invoke void @_ZNKSt8functionIFvRKNSt7__cxx1112basic_stringIcSt11char_traitsIcESaIcEEEEEclES7_(ptr noundef nonnull align 8 dereferenceable(32) %20, ptr noundef nonnull align 8 dereferenceable(32) %3)
          to label %23 unwind label %24

23:                                               ; preds = %19
  call void @_ZNSt7__cxx1112basic_stringIcSt11char_traitsIcESaIcEED1Ev(ptr noundef nonnull align 8 dereferenceable(32) %3) #10
  br label %80

24:                                               ; preds = %19
  %25 = landingpad { ptr, i32 }
          cleanup
  %26 = extractvalue { ptr, i32 } %25, 0
  store ptr %26, ptr %4, align 8
  %27 = extractvalue { ptr, i32 } %25, 1
  store i32 %27, ptr %5, align 4
  call void @_ZNSt7__cxx1112basic_stringIcSt11char_traitsIcESaIcEED1Ev(ptr noundef nonnull align 8 dereferenceable(32) %3) #10
  br label %81

28:                                               ; preds = %15
  %29 = getelementptr inbounds nuw %"class.pxrInternal_v0_24__pxrReserved__::Sdf_ParserValueContext", ptr %7, i32 0, i32 2
  %30 = load i32, ptr %29, align 8
  %31 = add nsw i32 %30, -1
  store i32 %31, ptr %29, align 8
  %32 = getelementptr inbounds nuw %"class.pxrInternal_v0_24__pxrReserved__::Sdf_ParserValueContext", ptr %7, i32 0, i32 3
  %33 = getelementptr inbounds nuw %"struct.pxrInternal_v0_24__pxrReserved__::SdfTupleDimensions", ptr %32, i32 0, i32 0
  %34 = getelementptr inbounds nuw %"class.pxrInternal_v0_24__pxrReserved__::Sdf_ParserValueContext", ptr %7, i32 0, i32 2
  %35 = load i32, ptr %34, align 8
  %36 = sext i32 %35 to i64
  %37 = getelementptr inbounds [2 x i64], ptr %33, i64 0, i64 %36
  %38 = load i64, ptr %37, align 8
  %39 = icmp ne i64 %38, 0
  br i1 %39, label %40, label %49

40:                                               ; preds = %28
  %41 = getelementptr inbounds nuw %"class.pxrInternal_v0_24__pxrReserved__::Sdf_ParserValueContext", ptr %7, i32 0, i32 13
  %42 = getelementptr inbounds nuw %"class.pxrInternal_v0_24__pxrReserved__::Sdf_ParserValueContext", ptr %7, i32 0, i32 7
  %43 = call noundef ptr @_ZNKSt7__cxx1112basic_stringIcSt11char_traitsIcESaIcEE5c_strEv(ptr noundef nonnull align 8 dereferenceable(32) %42) #10
  call void (ptr, ptr, ...) @_ZN32pxrInternal_v0_24__pxrReserved__14TfStringPrintfB5cxx11EPKcz(ptr dead_on_unwind writable sret(%"class.std::__cxx11::basic_string") align 8 %6, ptr noundef @.str.7, ptr noundef %43)
  invoke void @_ZNKSt8functionIFvRKNSt7__cxx1112basic_stringIcSt11char_traitsIcESaIcEEEEEclES7_(ptr noundef nonnull align 8 dereferenceable(32) %41, ptr noundef nonnull align 8 dereferenceable(32) %6)
          to label %44 unwind label %45

44:                                               ; preds = %40
  call void @_ZNSt7__cxx1112basic_stringIcSt11char_traitsIcESaIcEED1Ev(ptr noundef nonnull align 8 dereferenceable(32) %6) #10
  br label %80

45:                                               ; preds = %40
  %46 = landingpad { ptr, i32 }
          cleanup
  %47 = extractvalue { ptr, i32 } %46, 0
  store ptr %47, ptr %4, align 8
  %48 = extractvalue { ptr, i32 } %46, 1
  store i32 %48, ptr %5, align 4
  call void @_ZNSt7__cxx1112basic_stringIcSt11char_traitsIcESaIcEED1Ev(ptr noundef nonnull align 8 dereferenceable(32) %6) #10
  br label %81

49:                                               ; preds = %28
  %50 = getelementptr inbounds nuw %"class.pxrInternal_v0_24__pxrReserved__::Sdf_ParserValueContext", ptr %7, i32 0, i32 2
  %51 = load i32, ptr %50, align 8
  %52 = icmp sgt i32 %51, 0
  br i1 %52, label %53, label %63

53:                                               ; preds = %49
  %54 = getelementptr inbounds nuw %"class.pxrInternal_v0_24__pxrReserved__::Sdf_ParserValueContext", ptr %7, i32 0, i32 3
  %55 = getelementptr inbounds nuw %"struct.pxrInternal_v0_24__pxrReserved__::SdfTupleDimensions", ptr %54, i32 0, i32 0
  %56 = getelementptr inbounds nuw %"class.pxrInternal_v0_24__pxrReserved__::Sdf_ParserValueContext", ptr %7, i32 0, i32 2
  %57 = load i32, ptr %56, align 8
  %58 = sub nsw i32 %57, 1
  %59 = sext i32 %58 to i64
  %60 = getelementptr inbounds [2 x i64], ptr %55, i64 0, i64 %59
  %61 = load i64, ptr %60, align 8
  %62 = add i64 %61, -1
  store i64 %62, ptr %60, align 8
  br label %63

63:                                               ; preds = %53, %49
  %64 = getelementptr inbounds nuw %"class.pxrInternal_v0_24__pxrReserved__::Sdf_ParserValueContext", ptr %7, i32 0, i32 2
  %65 = load i32, ptr %64, align 8
  %66 = icmp eq i32 %65, 0
  br i1 %66, label %67, label %80

67:                                               ; preds = %63
  %68 = getelementptr inbounds nuw %"class.pxrInternal_v0_24__pxrReserved__::Sdf_ParserValueContext", ptr %7, i32 0, i32 0
  %69 = load i32, ptr %68, align 8
  %70 = icmp ne i32 %69, 0
  br i1 %70, label %71, label %80

71:                                               ; preds = %67
  %72 = getelementptr inbounds nuw %"class.pxrInternal_v0_24__pxrReserved__::Sdf_ParserValueContext", ptr %7, i32 0, i32 5
  %73 = getelementptr inbounds nuw %"class.pxrInternal_v0_24__pxrReserved__::Sdf_ParserValueContext", ptr %7, i32 0, i32 0
  %74 = load i32, ptr %73, align 8
  %75 = sub nsw i32 %74, 1
  %76 = sext i32 %75 to i64
  %77 = call noundef nonnull align 4 dereferenceable(4) ptr @_ZNSt6vectorIjSaIjEEixEm(ptr noundef nonnull align 8 dereferenceable(24) %72, i64 noundef %76) #10
  %78 = load i32, ptr %77, align 4
  %79 = add i32 %78, 1
  store i32 %79, ptr %77, align 4
  br label %80

80:                                               ; preds = %71, %67, %63, %44, %23
  ret void

81:                                               ; preds = %45, %24
  %82 = load ptr, ptr %4, align 8
  %83 = load i32, ptr %5, align 4
  %84 = insertvalue { ptr, i32 } poison, ptr %82, 0
  %85 = insertvalue { ptr, i32 } %84, i32 %83, 1
  resume { ptr, i32 } %85
}