; Function Attrs: mustprogress uwtable
define void @_ZN32pxrInternal_v0_24__pxrReserved__22Sdf_ParserValueContext8EndTupleEv(ptr noundef nonnull align 8 dereferenceable(328) %0) local_unnamed_addr #2 align 2 personality ptr @__gxx_personality_v0 {
  %2 = alloca %"class.std::__cxx11::basic_string", align 8
  %3 = alloca %"class.std::__cxx11::basic_string", align 8
  %4 = getelementptr inbounds nuw i8, ptr %0, i64 289
  %5 = load i8, ptr %4, align 1
  %6 = trunc i8 %5 to i1
  br i1 %6, label %7, label %11

7:                                                ; preds = %1
  %8 = getelementptr inbounds nuw i8, ptr %0, i64 296
  %9 = tail call noundef nonnull align 8 dereferenceable(32) ptr @_ZNSt7__cxx1112basic_stringIcSt11char_traitsIcESaIcEEpLEc(ptr noundef nonnull align 8 dereferenceable(32) %8, i8 noundef signext 41)
  %10 = getelementptr inbounds nuw i8, ptr %0, i64 288
  store i8 1, ptr %10, align 8
  br label %11

11:                                               ; preds = %7, %1
  %12 = getelementptr inbounds nuw i8, ptr %0, i64 32
  %13 = load i32, ptr %12, align 8
  %14 = icmp eq i32 %13, 0
  br i1 %14, label %15, label %27

15:                                               ; preds = %11
  %16 = getelementptr inbounds nuw i8, ptr %0, i64 120
  %17 = tail call noundef ptr @_ZNKSt7__cxx1112basic_stringIcSt11char_traitsIcESaIcEE5c_strEv(ptr noundef nonnull align 8 dereferenceable(32) %16) #19
  call void (ptr, ptr, ...) @_ZN32pxrInternal_v0_24__pxrReserved__14TfStringPrintfB5cxx11EPKcz(ptr dead_on_unwind nonnull writable sret(%"class.std::__cxx11::basic_string") align 8 %2, ptr noundef nonnull @.str.6, ptr noundef %17)
  %18 = getelementptr inbounds i8, ptr %0, i64 272
  %19 = load ptr, ptr %18, align 8
  %.not.i.i = icmp eq ptr %19, null
  br i1 %.not.i.i, label %20, label %21

20:                                               ; preds = %15
  invoke void @_ZSt25__throw_bad_function_callv() #21
          to label %.noexc unwind label %25

.noexc:                                           ; preds = %20
  unreachable

21:                                               ; preds = %15
  %22 = getelementptr inbounds nuw i8, ptr %0, i64 256
  %23 = getelementptr inbounds i8, ptr %0, i64 280
  %24 = load ptr, ptr %23, align 8
  invoke void %24(ptr noundef nonnull align 8 dereferenceable(16) %22, ptr noundef nonnull align 8 dereferenceable(32) %2)
          to label %_ZNKSt8functionIFvRKNSt7__cxx1112basic_stringIcSt11char_traitsIcESaIcEEEEEclES7_.exit unwind label %25

_ZNKSt8functionIFvRKNSt7__cxx1112basic_stringIcSt11char_traitsIcESaIcEEEEEclES7_.exit: ; preds = %21
  call void @_ZNSt7__cxx1112basic_stringIcSt11char_traitsIcESaIcEED1Ev(ptr noundef nonnull align 8 dereferenceable(32) %2) #19
  br label %64

25:                                               ; preds = %21, %20
  %26 = landingpad { ptr, i32 }
          cleanup
  br label %65

27:                                               ; preds = %11
  %28 = add nsw i32 %13, -1
  store i32 %28, ptr %12, align 8
  %29 = getelementptr inbounds nuw i8, ptr %0, i64 40
  %30 = sext i32 %28 to i64
  %31 = getelementptr inbounds [2 x i64], ptr %29, i64 0, i64 %30
  %32 = load i64, ptr %31, align 8
  %.not = icmp eq i64 %32, 0
  br i1 %.not, label %45, label %33

33:                                               ; preds = %27
  %34 = getelementptr inbounds nuw i8, ptr %0, i64 120
  %35 = tail call noundef ptr @_ZNKSt7__cxx1112basic_stringIcSt11char_traitsIcESaIcEE5c_strEv(ptr noundef nonnull align 8 dereferenceable(32) %34) #19
  call void (ptr, ptr, ...) @_ZN32pxrInternal_v0_24__pxrReserved__14TfStringPrintfB5cxx11EPKcz(ptr dead_on_unwind nonnull writable sret(%"class.std::__cxx11::basic_string") align 8 %3, ptr noundef nonnull @.str.7, ptr noundef %35)
  %36 = getelementptr inbounds i8, ptr %0, i64 272
  %37 = load ptr, ptr %36, align 8
  %.not.i.i9 = icmp eq ptr %37, null
  br i1 %.not.i.i9, label %38, label %39

38:                                               ; preds = %33
  invoke void @_ZSt25__throw_bad_function_callv() #21
          to label %.noexc10 unwind label %43

.noexc10:                                         ; preds = %38
  unreachable

39:                                               ; preds = %33
  %40 = getelementptr inbounds nuw i8, ptr %0, i64 256
  %41 = getelementptr inbounds i8, ptr %0, i64 280
  %42 = load ptr, ptr %41, align 8
  invoke void %42(ptr noundef nonnull align 8 dereferenceable(16) %40, ptr noundef nonnull align 8 dereferenceable(32) %3)
          to label %_ZNKSt8functionIFvRKNSt7__cxx1112basic_stringIcSt11char_traitsIcESaIcEEEEEclES7_.exit12 unwind label %43

_ZNKSt8functionIFvRKNSt7__cxx1112basic_stringIcSt11char_traitsIcESaIcEEEEEclES7_.exit12: ; preds = %39
  call void @_ZNSt7__cxx1112basic_stringIcSt11char_traitsIcESaIcEED1Ev(ptr noundef nonnull align 8 dereferenceable(32) %3) #19
  br label %64

43:                                               ; preds = %39, %38
  %44 = landingpad { ptr, i32 }
          cleanup
  br label %65

45:                                               ; preds = %27
  %46 = icmp sgt i32 %13, 1
  br i1 %46, label %.thread, label %52

.thread:                                          ; preds = %45
  %47 = add nsw i32 %13, -2
  %48 = zext nneg i32 %47 to i64
  %49 = getelementptr inbounds [2 x i64], ptr %29, i64 0, i64 %48
  %50 = load i64, ptr %49, align 8
  %51 = add i64 %50, -1
  store i64 %51, ptr %49, align 8
  br label %64

52:                                               ; preds = %45
  %53 = icmp eq i32 %28, 0
  br i1 %53, label %54, label %64

54:                                               ; preds = %52
  %55 = load i32, ptr %0, align 8
  %.not6 = icmp eq i32 %55, 0
  br i1 %.not6, label %64, label %56

56:                                               ; preds = %54
  %57 = getelementptr inbounds nuw i8, ptr %0, i64 88
  %58 = load ptr, ptr %57, align 8
  %59 = sext i32 %55 to i64
  %60 = getelementptr i32, ptr %58, i64 %59
  %61 = getelementptr i8, ptr %60, i64 -4
  %62 = load i32, ptr %61, align 4
  %63 = add i32 %62, 1
  store i32 %63, ptr %61, align 4
  br label %64

64:                                               ; preds = %.thread, %56, %54, %52, %_ZNKSt8functionIFvRKNSt7__cxx1112basic_stringIcSt11char_traitsIcESaIcEEEEEclES7_.exit12, %_ZNKSt8functionIFvRKNSt7__cxx1112basic_stringIcSt11char_traitsIcESaIcEEEEEclES7_.exit
  ret void

65:                                               ; preds = %43, %25
  %.sink = phi ptr [ %3, %43 ], [ %2, %25 ]
  %.pn = phi { ptr, i32 } [ %44, %43 ], [ %26, %25 ]
  call void @_ZNSt7__cxx1112basic_stringIcSt11char_traitsIcESaIcEED1Ev(ptr noundef nonnull align 8 dereferenceable(32) %.sink) #19
  resume { ptr, i32 } %.pn
}